target datalayout = "e-m:e-p270:32:32-p271:32:32-p272:64:64-i64:64-i128:128-f80:128-n8:16:32:64-S128"
target triple = "x86_64-pc-linux-gnu"

%"struct.Luau::Lexeme" = type { i32, %"struct.Luau::Location", i32, %union.anon }
%"struct.Luau::Location" = type { %"struct.Luau::Position", %"struct.Luau::Position" }
%"struct.Luau::Position" = type { i32, i32 }
%union.anon = type { ptr }
%"class.Luau::Lexer" = type { ptr, i64, i32, i32, i32, %"struct.Luau::Lexeme", %"struct.Luau::Location", ptr, i8, i8, %"class.std::vector" }
%"class.std::vector" = type { %"struct.std::_Vector_base" }
%"struct.std::_Vector_base" = type { %"struct.std::_Vector_base<Luau::Lexer::BraceType, std::allocator<Luau::Lexer::BraceType>>::_Vector_impl" }
%"struct.std::_Vector_base<Luau::Lexer::BraceType, std::allocator<Luau::Lexer::BraceType>>::_Vector_impl" = type { %"struct.std::_Vector_base<Luau::Lexer::BraceType, std::allocator<Luau::Lexer::BraceType>>::_Vector_impl_data" }
%"struct.std::_Vector_base<Luau::Lexer::BraceType, std::allocator<Luau::Lexer::BraceType>>::_Vector_impl_data" = type { ptr, ptr, ptr }

@_ZN4Luau6LexemeC1ERKNS_8LocationENS0_4TypeEPKcm = dso_local unnamed_addr alias void (ptr, ptr, i32, ptr, i64), ptr @_ZN4Luau6LexemeC2ERKNS_8LocationENS0_4TypeEPKcm

; Function Attrs: mustprogress nounwind uwtable
define linkonce_odr dso_local void @_ZN4Luau8PositionC2Ejj(ptr noundef nonnull align 4 dereferenceable(8) %0, i32 noundef %1, i32 noundef %2) unnamed_addr #2 comdat align 2 {
  %4 = alloca ptr, align 8
  %5 = alloca i32, align 4
  %6 = alloca i32, align 4
  store ptr %0, ptr %4, align 8, !tbaa !87
  store i32 %1, ptr %5, align 4, !tbaa !4
  store i32 %2, ptr %6, align 4, !tbaa !4
  %7 = load ptr, ptr %4, align 8
  %8 = getelementptr inbounds nuw %"struct.Luau::Position", ptr %7, i32 0, i32 0
  %9 = load i32, ptr %5, align 4, !tbaa !4
  store i32 %9, ptr %8, align 4, !tbaa !81
  %10 = getelementptr inbounds nuw %"struct.Luau::Position", ptr %7, i32 0, i32 1
  %11 = load i32, ptr %6, align 4, !tbaa !4
  store i32 %11, ptr %10, align 4, !tbaa !83
  ret void
}

; Function Attrs: mustprogress nounwind uwtable
define linkonce_odr dso_local void @_ZN4Luau8LocationC2ERKNS_8PositionES3_(ptr noundef nonnull align 4 dereferenceable(16) %0, ptr noundef nonnull align 4 dereferenceable(8) %1, ptr noundef nonnull align 4 dereferenceable(8) %2) unnamed_addr #2 comdat align 2 {
  %4 = alloca ptr, align 8
  %5 = alloca ptr, align 8
  %6 = alloca ptr, align 8
  store ptr %0, ptr %4, align 8, !tbaa !24
  store ptr %1, ptr %5, align 8, !tbaa !87
  store ptr %2, ptr %6, align 8, !tbaa !87
  %7 = load ptr, ptr %4, align 8
  %8 = getelementptr inbounds nuw %"struct.Luau::Location", ptr %7, i32 0, i32 0
  %9 = load ptr, ptr %5, align 8, !tbaa !87
  call void @llvm.memcpy.p0.p0.i64(ptr align 4 %8, ptr align 4 %9, i64 8, i1 false), !tbaa.struct !89
  %10 = getelementptr inbounds nuw %"struct.Luau::Location", ptr %7, i32 0, i32 1
  %11 = load ptr, ptr %6, align 8, !tbaa !87
  call void @llvm.memcpy.p0.p0.i64(ptr align 4 %10, ptr align 4 %11, i64 8, i1 false), !tbaa.struct !89
  ret void
}

; Function Attrs: alwaysinline mustprogress uwtable
define linkonce_odr dso_local i64 @_ZNK4Luau5Lexer8positionEv(ptr noundef nonnull align 8 dereferenceable(120) %0) #9 comdat align 2 {
  %2 = alloca %"struct.Luau::Position", align 4
  %3 = alloca ptr, align 8
  store ptr %0, ptr %3, align 8, !tbaa !71
  %4 = load ptr, ptr %3, align 8
  %5 = getelementptr inbounds nuw %"class.Luau::Lexer", ptr %4, i32 0, i32 3
  %6 = load i32, ptr %5, align 4, !tbaa !82
  %7 = getelementptr inbounds nuw %"class.Luau::Lexer", ptr %4, i32 0, i32 2
  %8 = load i32, ptr %7, align 8, !tbaa !80
  %9 = getelementptr inbounds nuw %"class.Luau::Lexer", ptr %4, i32 0, i32 4
  %10 = load i32, ptr %9, align 8, !tbaa !84
  %11 = sub i32 %8, %10
  call void @_ZN4Luau8PositionC2Ejj(ptr noundef nonnull align 4 dereferenceable(8) %2, i32 noundef %6, i32 noundef %11)
  %12 = load i64, ptr %2, align 4
  ret i64 %12
}

; Function Attrs: inlinehint mustprogress nounwind uwtable
define linkonce_odr dso_local noundef zeroext i1 @_ZN4Luau7isAlphaEc(i8 noundef signext %0) #7 comdat {
  %2 = alloca i8, align 1
  store i8 %0, ptr %2, align 1, !tbaa !34
  %3 = load i8, ptr %2, align 1, !tbaa !34
  %4 = sext i8 %3 to i32
  %5 = or i32 %4, 32
  %6 = sub nsw i32 %5, 97
  %7 = icmp ult i32 %6, 26
  ret i1 %7
}

; Function Attrs: inlinehint mustprogress nounwind uwtable
define linkonce_odr dso_local noundef zeroext i1 @_ZN4Luau7isDigitEc(i8 noundef signext %0) #7 comdat {
  %2 = alloca i8, align 1
  store i8 %0, ptr %2, align 1, !tbaa !34
  %3 = load i8, ptr %2, align 1, !tbaa !34
  %4 = sext i8 %3 to i32
  %5 = sub nsw i32 %4, 48
  %6 = icmp ult i32 %5, 10
  ret i1 %6
}

; Function Attrs: alwaysinline mustprogress nounwind uwtable
define linkonce_odr dso_local noundef signext i8 @_ZNK4Luau5Lexer6peekchEv(ptr noundef nonnull align 8 dereferenceable(120) %0) #8 comdat align 2 {
  %2 = alloca ptr, align 8
  store ptr %0, ptr %2, align 8, !tbaa !71
  %3 = load ptr, ptr %2, align 8
  %4 = getelementptr inbounds nuw %"class.Luau::Lexer", ptr %3, i32 0, i32 2
  %5 = load i32, ptr %4, align 8, !tbaa !80
  %6 = zext i32 %5 to i64
  %7 = getelementptr inbounds nuw %"class.Luau::Lexer", ptr %3, i32 0, i32 1
  %8 = load i64, ptr %7, align 8, !tbaa !79
  %9 = icmp ult i64 %6, %8
  br i1 %9, label %10, label %19

10:                                               ; preds = %1
  %11 = getelementptr inbounds nuw %"class.Luau::Lexer", ptr %3, i32 0, i32 0
  %12 = load ptr, ptr %11, align 8, !tbaa !73
  %13 = getelementptr inbounds nuw %"class.Luau::Lexer", ptr %3, i32 0, i32 2
  %14 = load i32, ptr %13, align 8, !tbaa !80
  %15 = zext i32 %14 to i64
  %16 = getelementptr inbounds nuw i8, ptr %12, i64 %15
  %17 = load i8, ptr %16, align 1, !tbaa !34
  %18 = sext i8 %17 to i32
  br label %20

19:                                               ; preds = %1
  br label %20

20:                                               ; preds = %19, %10
  %21 = phi i32 [ %18, %10 ], [ 0, %19 ]
  %22 = trunc i32 %21 to i8
  ret i8 %22
}

; Function Attrs: alwaysinline mustprogress nounwind uwtable
define linkonce_odr dso_local void @_ZN4Luau5Lexer7consumeEv(ptr noundef nonnull align 8 dereferenceable(120) %0) #8 comdat align 2 {
  %2 = alloca ptr, align 8
  store ptr %0, ptr %2, align 8, !tbaa !71
  %3 = load ptr, ptr %2, align 8
  %4 = getelementptr inbounds nuw %"class.Luau::Lexer", ptr %3, i32 0, i32 2
  %5 = load i32, ptr %4, align 8, !tbaa !80
  %6 = add i32 %5, 1
  store i32 %6, ptr %4, align 8, !tbaa !80
  ret void
}

; Function Attrs: mustprogress uwtable
define dso_local void @_ZN4Luau5Lexer10readNumberERKNS_8PositionEj(ptr dead_on_unwind noalias writable sret(%"struct.Luau::Lexeme") align 8 %0, ptr noundef nonnull align 8 dereferenceable(120) %1, ptr noundef nonnull align 4 dereferenceable(8) %2, i32 noundef %3) #4 align 2 {
  %5 = alloca ptr, align 8
  %6 = alloca ptr, align 8
  %7 = alloca i32, align 4
  %8 = alloca %"struct.Luau::Location", align 4
  %9 = alloca %"struct.Luau::Position", align 4
  store ptr %1, ptr %5, align 8, !tbaa !71
  store ptr %2, ptr %6, align 8, !tbaa !87
  store i32 %3, ptr %7, align 4, !tbaa !4
  %10 = load ptr, ptr %5, align 8
  br label %11

11:                                               ; preds = %23, %4
  call void @_ZN4Luau5Lexer7consumeEv(ptr noundef nonnull align 8 dereferenceable(120) %10)
  br label %12

12:                                               ; preds = %11
  %13 = call noundef signext i8 @_ZNK4Luau5Lexer6peekchEv(ptr noundef nonnull align 8 dereferenceable(120) %10)
  %14 = call noundef zeroext i1 @_ZN4Luau7isDigitEc(i8 noundef signext %13)
  br i1 %14, label %23, label %15

15:                                               ; preds = %12
  %16 = call noundef signext i8 @_ZNK4Luau5Lexer6peekchEv(ptr noundef nonnull align 8 dereferenceable(120) %10)
  %17 = sext i8 %16 to i32
  %18 = icmp eq i32 %17, 46
  br i1 %18, label %23, label %19

19:                                               ; preds = %15
  %20 = call noundef signext i8 @_ZNK4Luau5Lexer6peekchEv(ptr noundef nonnull align 8 dereferenceable(120) %10)
  %21 = sext i8 %20 to i32
  %22 = icmp eq i32 %21, 95
  br label %23

23:                                               ; preds = %19, %15, %12
  %24 = phi i1 [ true, %15 ], [ true, %12 ], [ %22, %19 ]
  br i1 %24, label %11, label %25, !llvm.loop !112

25:                                               ; preds = %23
  %26 = call noundef signext i8 @_ZNK4Luau5Lexer6peekchEv(ptr noundef nonnull align 8 dereferenceable(120) %10)
  %27 = sext i8 %26 to i32
  %28 = icmp eq i32 %27, 101
  br i1 %28, label %33, label %29

29:                                               ; preds = %25
  %30 = call noundef signext i8 @_ZNK4Luau5Lexer6peekchEv(ptr noundef nonnull align 8 dereferenceable(120) %10)
  %31 = sext i8 %30 to i32
  %32 = icmp eq i32 %31, 69
  br i1 %32, label %33, label %43

33:                                               ; preds = %29, %25
  call void @_ZN4Luau5Lexer7consumeEv(ptr noundef nonnull align 8 dereferenceable(120) %10)
  %34 = call noundef signext i8 @_ZNK4Luau5Lexer6peekchEv(ptr noundef nonnull align 8 dereferenceable(120) %10)
  %35 = sext i8 %34 to i32
  %36 = icmp eq i32 %35, 43
  br i1 %36, label %41, label %37

37:                                               ; preds = %33
  %38 = call noundef signext i8 @_ZNK4Luau5Lexer6peekchEv(ptr noundef nonnull align 8 dereferenceable(120) %10)
  %39 = sext i8 %38 to i32
  %40 = icmp eq i32 %39, 45
  br i1 %40, label %41, label %42

41:                                               ; preds = %37, %33
  call void @_ZN4Luau5Lexer7consumeEv(ptr noundef nonnull align 8 dereferenceable(120) %10)
  br label %42

42:                                               ; preds = %41, %37
  br label %43

43:                                               ; preds = %42, %29
  br label %44

44:                                               ; preds = %56, %43
  %45 = call noundef signext i8 @_ZNK4Luau5Lexer6peekchEv(ptr noundef nonnull align 8 dereferenceable(120) %10)
  %46 = call noundef zeroext i1 @_ZN4Luau7isAlphaEc(i8 noundef signext %45)
  br i1 %46, label %54, label %47

47:                                               ; preds = %44
  %48 = call noundef signext i8 @_ZNK4Luau5Lexer6peekchEv(ptr noundef nonnull align 8 dereferenceable(120) %10)
  %49 = call noundef zeroext i1 @_ZN4Luau7isDigitEc(i8 noundef signext %48)
  br i1 %49, label %54, label %50

50:                                               ; preds = %47
  %51 = call noundef signext i8 @_ZNK4Luau5Lexer6peekchEv(ptr noundef nonnull align 8 dereferenceable(120) %10)
  %52 = sext i8 %51 to i32
  %53 = icmp eq i32 %52, 95
  br label %54

54:                                               ; preds = %50, %47, %44
  %55 = phi i1 [ true, %47 ], [ true, %44 ], [ %53, %50 ]
  br i1 %55, label %56, label %57

56:                                               ; preds = %54
  call void @_ZN4Luau5Lexer7consumeEv(ptr noundef nonnull align 8 dereferenceable(120) %10)
  br label %44, !llvm.loop !113

57:                                               ; preds = %54
  call void @llvm.lifetime.start.p0(i64 16, ptr %8) #18
  %58 = load ptr, ptr %6, align 8, !tbaa !87
  call void @llvm.lifetime.start.p0(i64 8, ptr %9) #18
  %59 = call i64 @_ZNK4Luau5Lexer8positionEv(ptr noundef nonnull align 8 dereferenceable(120) %10)
  store i64 %59, ptr %9, align 4
  call void @_ZN4Luau8LocationC2ERKNS_8PositionES3_(ptr noundef nonnull align 4 dereferenceable(16) %8, ptr noundef nonnull align 4 dereferenceable(8) %58, ptr noundef nonnull align 4 dereferenceable(8) %9)
  %60 = getelementptr inbounds nuw %"class.Luau::Lexer", ptr %10, i32 0, i32 0
  %61 = load ptr, ptr %60, align 8, !tbaa !73
  %62 = load i32, ptr %7, align 4, !tbaa !4
  %63 = zext i32 %62 to i64
  %64 = getelementptr inbounds nuw i8, ptr %61, i64 %63
  %65 = getelementptr inbounds nuw %"class.Luau::Lexer", ptr %10, i32 0, i32 2
  %66 = load i32, ptr %65, align 8, !tbaa !80
  %67 = load i32, ptr %7, align 4, !tbaa !4
  %68 = sub i32 %66, %67
  %69 = zext i32 %68 to i64
  call void @_ZN4Luau6LexemeC1ERKNS_8LocationENS0_4TypeEPKcm(ptr noundef nonnull align 8 dereferenceable(32) %0, ptr noundef nonnull align 4 dereferenceable(16) %8, i32 noundef 280, ptr noundef %64, i64 noundef %69)
  call void @llvm.lifetime.end.p0(i64 8, ptr %9) #18
  call void @llvm.lifetime.end.p0(i64 16, ptr %8) #18
  ret void
}