; Function Attrs: mustprogress nofree norecurse nosync nounwind memory(read, argmem: readwrite, inaccessiblemem: none) uwtable
define dso_local void @_ZN4Luau5Lexer10readNumberERKNS_8PositionEj(ptr dead_on_unwind noalias writable writeonly sret(%"struct.Luau::Lexeme") align 8 captures(none) %0, ptr noundef nonnull align 8 captures(none) dereferenceable(120) %1, ptr noundef nonnull readonly align 4 captures(none) dereferenceable(8) %2, i32 noundef %3) local_unnamed_addr #13 align 2 {
  %5 = getelementptr inbounds nuw i8, ptr %1, i64 16
  %6 = getelementptr inbounds nuw i8, ptr %1, i64 8
  %7 = load i64, ptr %6, align 8, !tbaa !59
  %.promoted = load i32, ptr %5, align 8, !tbaa !60
  %8 = add i32 %.promoted, 1
  store i32 %8, ptr %5, align 8, !tbaa !60
  %9 = zext i32 %8 to i64
  %10 = icmp ugt i64 %7, %9
  %.pre.pre.pre = load ptr, ptr %1, align 8, !tbaa !51
  br i1 %10, label %_ZNK4Luau5Lexer6peekchEv.exit13, label %_ZNK4Luau5Lexer6peekchEv.exit9.thread

_ZNK4Luau5Lexer6peekchEv.exit13:                  ; preds = %4, %.backedge
  %11 = phi i64 [ %20, %.backedge ], [ %9, %4 ]
  %12 = phi i32 [ %19, %.backedge ], [ %8, %4 ]
  %13 = phi i32 [ %12, %.backedge ], [ %.promoted, %4 ]
  %14 = getelementptr inbounds nuw i8, ptr %.pre.pre.pre, i64 %11
  %15 = load i8, ptr %14, align 1, !tbaa !15
  %.fr = freeze i8 %15
  %16 = sext i8 %.fr to i32
  %17 = add nsw i32 %16, -48
  %18 = icmp ult i32 %17, 10
  br i1 %18, label %.backedge, label %switch.early.test

switch.early.test:                                ; preds = %_ZNK4Luau5Lexer6peekchEv.exit13
  switch i8 %.fr, label %_ZNK4Luau5Lexer6peekchEv.exit9.thread [
    i8 95, label %.backedge
    i8 46, label %.backedge
    i8 101, label %22
    i8 69, label %22
  ]

.backedge:                                        ; preds = %switch.early.test, %switch.early.test, %_ZNK4Luau5Lexer6peekchEv.exit13
  %19 = add i32 %12, 1
  store i32 %19, ptr %5, align 8, !tbaa !60
  %20 = zext i32 %19 to i64
  %21 = icmp ugt i64 %7, %20
  br i1 %21, label %_ZNK4Luau5Lexer6peekchEv.exit13, label %_ZNK4Luau5Lexer6peekchEv.exit9.thread, !llvm.loop !98

22:                                               ; preds = %switch.early.test, %switch.early.test
  %23 = add i32 %13, 2
  store i32 %23, ptr %5, align 8, !tbaa !60
  %24 = zext i32 %23 to i64
  %25 = icmp ugt i64 %7, %24
  br i1 %25, label %_ZNK4Luau5Lexer6peekchEv.exit8, label %_ZNK4Luau5Lexer6peekchEv.exit9.thread

_ZNK4Luau5Lexer6peekchEv.exit8:                   ; preds = %22
  %26 = getelementptr inbounds nuw i8, ptr %.pre.pre.pre, i64 %24
  %27 = load i8, ptr %26, align 1, !tbaa !15
  switch i8 %27, label %_ZNK4Luau5Lexer6peekchEv.exit9.thread [
    i8 43, label %28
    i8 45, label %28
  ]

28:                                               ; preds = %_ZNK4Luau5Lexer6peekchEv.exit8, %_ZNK4Luau5Lexer6peekchEv.exit8
  %29 = add i32 %13, 3
  store i32 %29, ptr %5, align 8, !tbaa !60
  br label %_ZNK4Luau5Lexer6peekchEv.exit9.thread

_ZNK4Luau5Lexer6peekchEv.exit9.thread:            ; preds = %switch.early.test, %.backedge, %_ZNK4Luau5Lexer6peekchEv.exit8, %4, %22, %28
  %.promoted31 = phi i32 [ %23, %22 ], [ %29, %28 ], [ %8, %4 ], [ %23, %_ZNK4Luau5Lexer6peekchEv.exit8 ], [ %19, %.backedge ], [ %12, %switch.early.test ]
  %30 = zext i32 %.promoted31 to i64
  %31 = icmp ugt i64 %7, %30
  br i1 %31, label %_ZNK4Luau5Lexer6peekchEv.exit6, label %_ZNK4Luau5Lexer6peekchEv.exit.thread

_ZNK4Luau5Lexer6peekchEv.exit6:                   ; preds = %_ZNK4Luau5Lexer6peekchEv.exit9.thread, %.critedge2
  %32 = phi i64 [ %45, %.critedge2 ], [ %30, %_ZNK4Luau5Lexer6peekchEv.exit9.thread ]
  %33 = phi i32 [ %44, %.critedge2 ], [ %.promoted31, %_ZNK4Luau5Lexer6peekchEv.exit9.thread ]
  %34 = getelementptr inbounds nuw i8, ptr %.pre.pre.pre, i64 %32
  %35 = load i8, ptr %34, align 1, !tbaa !15
  %36 = or i8 %35, 32
  %37 = sext i8 %36 to i32
  %38 = add nsw i32 %37, -97
  %39 = icmp ult i32 %38, 26
  br i1 %39, label %.critedge2, label %_ZNK4Luau5Lexer6peekchEv.exit5

_ZNK4Luau5Lexer6peekchEv.exit5:                   ; preds = %_ZNK4Luau5Lexer6peekchEv.exit6
  %40 = sext i8 %35 to i32
  %41 = add nsw i32 %40, -48
  %42 = icmp ult i32 %41, 10
  %43 = icmp eq i8 %35, 95
  %or.cond = or i1 %42, %43
  br i1 %or.cond, label %.critedge2, label %_ZNK4Luau5Lexer6peekchEv.exit.thread

.critedge2:                                       ; preds = %_ZNK4Luau5Lexer6peekchEv.exit5, %_ZNK4Luau5Lexer6peekchEv.exit6
  %44 = add i32 %33, 1
  store i32 %44, ptr %5, align 8, !tbaa !60
  %45 = zext i32 %44 to i64
  %46 = icmp ugt i64 %7, %45
  br i1 %46, label %_ZNK4Luau5Lexer6peekchEv.exit6, label %_ZNK4Luau5Lexer6peekchEv.exit.thread, !llvm.loop !99

_ZNK4Luau5Lexer6peekchEv.exit.thread:             ; preds = %.critedge2, %_ZNK4Luau5Lexer6peekchEv.exit5, %_ZNK4Luau5Lexer6peekchEv.exit9.thread
  %.lcssa = phi i32 [ %.promoted31, %_ZNK4Luau5Lexer6peekchEv.exit9.thread ], [ %44, %.critedge2 ], [ %33, %_ZNK4Luau5Lexer6peekchEv.exit5 ]
  %47 = getelementptr inbounds nuw i8, ptr %1, i64 20
  %48 = load i32, ptr %47, align 4, !tbaa !66
  %49 = getelementptr inbounds nuw i8, ptr %1, i64 24
  %50 = load i32, ptr %49, align 8, !tbaa !67
  %51 = sub i32 %.lcssa, %50
  %.sroa.416.0.insert.ext = zext i32 %51 to i64
  %.sroa.416.0.insert.shift = shl nuw i64 %.sroa.416.0.insert.ext, 32
  %.sroa.015.0.insert.ext = zext i32 %48 to i64
  %.sroa.015.0.insert.insert = or disjoint i64 %.sroa.416.0.insert.shift, %.sroa.015.0.insert.ext
  %52 = load i64, ptr %2, align 4
  %53 = zext i32 %3 to i64
  %54 = getelementptr inbounds nuw i8, ptr %.pre.pre.pre, i64 %53
  %55 = sub i32 %.lcssa, %3
  store i32 280, ptr %0, align 8, !tbaa !8
  %56 = getelementptr inbounds nuw i8, ptr %0, i64 4
  store i64 %52, ptr %56, align 4
  %.sroa.4.0..sroa_idx = getelementptr inbounds nuw i8, ptr %0, i64 12
  store i64 %.sroa.015.0.insert.insert, ptr %.sroa.4.0..sroa_idx, align 4
  %57 = getelementptr inbounds nuw i8, ptr %0, i64 20
  store i32 %55, ptr %57, align 4, !tbaa !14
  %58 = getelementptr inbounds nuw i8, ptr %0, i64 24
  store ptr %54, ptr %58, align 8, !tbaa !15
  ret void
}